; Function Attrs: nounwind uwtable
define dso_local i64 @ZSTD_compressBlock_deprecated(ptr noundef %0, ptr noundef %1, i64 noundef %2, ptr noundef %3, i64 noundef %4) local_unnamed_addr #1 {
  %6 = getelementptr i8, ptr %0, i64 228
  %.val = load i32, ptr %6, align 4
  %7 = getelementptr i8, ptr %0, i64 416
  %.val9 = load i64, ptr %7, align 8
  %8 = zext nneg i32 %.val to i64
  %9 = shl nuw i64 1, %8
  %..i = tail call range(i64 0, -9223372036854775807) i64 @llvm.umin.i64(i64 %.val9, i64 %9)
  %10 = icmp ugt i64 %4, %..i
  br i1 %10, label %13, label %11

11:                                               ; preds = %5
  %12 = tail call fastcc i64 @ZSTD_compressContinue_internal(ptr noundef nonnull %0, ptr noundef %1, i64 noundef %2, ptr noundef %3, i64 noundef %4, i32 noundef 0, i32 noundef 0)
  br label %13

13:                                               ; preds = %5, %11
  %.0 = phi i64 [ %12, %11 ], [ -72, %5 ]
  ret i64 %.0
}